target datalayout = "e-m:e-p270:32:32-p271:32:32-p272:64:64-i64:64-i128:128-f80:128-n8:16:32:64-S128"
target triple = "x86_64-pc-linux-gnu"

@X11_XFree = external global ptr, align 8
@X11_XGetAtomName = external global ptr, align 8
@.str.8 = private unnamed_addr constant [25 x i8] c"text/plain;charset=utf-8\00", align 1
@.str.9 = private unnamed_addr constant [12 x i8] c"UTF8_STRING\00", align 1
@.str.10 = private unnamed_addr constant [11 x i8] c"text/plain\00", align 1
@.str.11 = private unnamed_addr constant [5 x i8] c"TEXT\00", align 1
@.str.12 = private unnamed_addr constant [14 x i8] c"text/uri-list\00", align 1

; Function Attrs: nounwind uwtable
define internal i64 @X11_PickTarget(ptr noundef %0, ptr noundef %1, i32 noundef %2) #0 {
  %4 = alloca ptr, align 8
  %5 = alloca ptr, align 8
  %6 = alloca i32, align 4
  %7 = alloca i64, align 8
  %8 = alloca ptr, align 8
  %9 = alloca i32, align 4
  store ptr %0, ptr %4, align 8
  store ptr %1, ptr %5, align 8
  store i32 %2, ptr %6, align 4
  call void @llvm.lifetime.start.p0(i64 8, ptr %7) #7
  store i64 0, ptr %7, align 8
  call void @llvm.lifetime.start.p0(i64 8, ptr %8) #7
  call void @llvm.lifetime.start.p0(i64 4, ptr %9) #7
  store i32 0, ptr %9, align 4
  br label %10

10:                                               ; preds = %67, %3
  %11 = load i32, ptr %9, align 4
  %12 = load i32, ptr %6, align 4
  %13 = icmp slt i32 %11, %12
  br i1 %13, label %14, label %17

14:                                               ; preds = %10
  %15 = load i64, ptr %7, align 8
  %16 = icmp eq i64 %15, 0
  br label %17

17:                                               ; preds = %14, %10
  %18 = phi i1 [ false, %10 ], [ %16, %14 ]
  br i1 %18, label %19, label %70

19:                                               ; preds = %17
  %20 = load ptr, ptr @X11_XGetAtomName, align 8
  %21 = load ptr, ptr %4, align 8
  %22 = load ptr, ptr %5, align 8
  %23 = load i32, ptr %9, align 4
  %24 = sext i32 %23 to i64
  %25 = getelementptr inbounds i64, ptr %22, i64 %24
  %26 = load i64, ptr %25, align 8
  %27 = call ptr %20(ptr noundef %21, i64 noundef %26)
  store ptr %27, ptr %8, align 8
  %28 = load ptr, ptr %8, align 8
  %29 = call i32 @SDL_strcmp_REAL(ptr noundef @.str.12, ptr noundef %28)
  %30 = icmp eq i32 %29, 0
  br i1 %30, label %39, label %31

31:                                               ; preds = %19
  %32 = load ptr, ptr %8, align 8
  %33 = call i32 @SDL_strcmp_REAL(ptr noundef @.str.8, ptr noundef %32)
  %34 = icmp eq i32 %33, 0
  br i1 %34, label %39, label %35

35:                                               ; preds = %31
  %36 = load ptr, ptr %8, align 8
  %37 = call i32 @SDL_strcmp_REAL(ptr noundef @.str.9, ptr noundef %36)
  %38 = icmp eq i32 %37, 0
  br i1 %38, label %39, label %45

39:                                               ; preds = %35, %31, %19
  %40 = load ptr, ptr %5, align 8
  %41 = load i32, ptr %9, align 4
  %42 = sext i32 %41 to i64
  %43 = getelementptr inbounds i64, ptr %40, i64 %42
  %44 = load i64, ptr %43, align 8
  store i64 %44, ptr %7, align 8
  br label %45

45:                                               ; preds = %39, %35
  %46 = load ptr, ptr %8, align 8
  %47 = call i32 @SDL_strcmp_REAL(ptr noundef @.str.10, ptr noundef %46)
  %48 = icmp eq i32 %47, 0
  br i1 %48, label %53, label %49

49:                                               ; preds = %45
  %50 = load ptr, ptr %8, align 8
  %51 = call i32 @SDL_strcmp_REAL(ptr noundef @.str.11, ptr noundef %50)
  %52 = icmp eq i32 %51, 0
  br i1 %52, label %53, label %63

53:                                               ; preds = %49, %45
  %54 = load i64, ptr %7, align 8
  %55 = icmp eq i64 %54, 0
  br i1 %55, label %56, label %62

56:                                               ; preds = %53
  %57 = load ptr, ptr %5, align 8
  %58 = load i32, ptr %9, align 4
  %59 = sext i32 %58 to i64
  %60 = getelementptr inbounds i64, ptr %57, i64 %59
  %61 = load i64, ptr %60, align 8
  store i64 %61, ptr %7, align 8
  br label %62

62:                                               ; preds = %56, %53
  br label %63

63:                                               ; preds = %62, %49
  %64 = load ptr, ptr @X11_XFree, align 8
  %65 = load ptr, ptr %8, align 8
  %66 = call i32 %64(ptr noundef %65)
  br label %67

67:                                               ; preds = %63
  %68 = load i32, ptr %9, align 4
  %69 = add nsw i32 %68, 1
  store i32 %69, ptr %9, align 4
  br label %10, !llvm.loop !21

70:                                               ; preds = %17
  %71 = load i64, ptr %7, align 8
  call void @llvm.lifetime.end.p0(i64 4, ptr %9) #7
  call void @llvm.lifetime.end.p0(i64 8, ptr %8) #7
  call void @llvm.lifetime.end.p0(i64 8, ptr %7) #7
  ret i64 %71
}