; Function Attrs: nounwind uwtable
define internal fastcc i64 @X11_PickTarget(ptr noundef %0, ptr noundef readonly captures(none) %1, i32 noundef %2) unnamed_addr #1 {
  %4 = icmp sgt i32 %2, 0
  br i1 %4, label %.lr.ph.preheader, label %._crit_edge

.lr.ph.preheader:                                 ; preds = %3
  %5 = zext nneg i32 %2 to i64
  br label %.lr.ph

.lr.ph:                                           ; preds = %.lr.ph.preheader, %30
  %indvars.iv = phi i64 [ 0, %.lr.ph.preheader ], [ %indvars.iv.next, %30 ]
  %6 = load ptr, ptr @X11_XGetAtomName, align 8
  %7 = getelementptr inbounds nuw i64, ptr %1, i64 %indvars.iv
  %8 = load i64, ptr %7, align 8
  %9 = tail call ptr %6(ptr noundef %0, i64 noundef %8) #12
  %10 = tail call i32 @SDL_strcmp_REAL(ptr noundef nonnull @.str.12, ptr noundef %9) #12
  %11 = icmp eq i32 %10, 0
  br i1 %11, label %18, label %12

12:                                               ; preds = %.lr.ph
  %13 = tail call i32 @SDL_strcmp_REAL(ptr noundef nonnull @.str.8, ptr noundef %9) #12
  %14 = icmp eq i32 %13, 0
  br i1 %14, label %18, label %15

15:                                               ; preds = %12
  %16 = tail call i32 @SDL_strcmp_REAL(ptr noundef nonnull @.str.9, ptr noundef %9) #12
  %17 = icmp eq i32 %16, 0
  br i1 %17, label %18, label %.thread

18:                                               ; preds = %.lr.ph, %12, %15
  %19 = load i64, ptr %7, align 8
  %20 = tail call i32 @SDL_strcmp_REAL(ptr noundef nonnull @.str.10, ptr noundef %9) #12
  %21 = icmp eq i32 %20, 0
  br i1 %21, label %28, label %24

.thread:                                          ; preds = %15
  %22 = tail call i32 @SDL_strcmp_REAL(ptr noundef nonnull @.str.10, ptr noundef %9) #12
  %23 = icmp eq i32 %22, 0
  br i1 %23, label %.thread24, label %24

24:                                               ; preds = %.thread, %18
  %.123 = phi i64 [ 0, %.thread ], [ %19, %18 ]
  %25 = tail call i32 @SDL_strcmp_REAL(ptr noundef nonnull @.str.11, ptr noundef %9) #12
  %26 = icmp eq i32 %25, 0
  %27 = icmp eq i64 %.123, 0
  %or.cond = select i1 %26, i1 %27, i1 false
  br i1 %or.cond, label %.thread24, label %30

28:                                               ; preds = %18
  %.old1 = icmp eq i64 %19, 0
  br i1 %.old1, label %.thread24, label %30

.thread24:                                        ; preds = %.thread, %24, %28
  %29 = load i64, ptr %7, align 8
  br label %30

30:                                               ; preds = %28, %.thread24, %24
  %.2 = phi i64 [ %29, %.thread24 ], [ %19, %28 ], [ %.123, %24 ]
  %31 = load ptr, ptr @X11_XFree, align 8
  %32 = tail call i32 %31(ptr noundef %9) #12
  %indvars.iv.next = add nuw nsw i64 %indvars.iv, 1
  %33 = icmp samesign ult i64 %indvars.iv.next, %5
  %34 = icmp eq i64 %.2, 0
  %35 = select i1 %33, i1 %34, i1 false
  br i1 %35, label %.lr.ph, label %._crit_edge, !llvm.loop !20

._crit_edge:                                      ; preds = %30, %3
  %.020.lcssa = phi i64 [ 0, %3 ], [ %.2, %30 ]
  ret i64 %.020.lcssa
}